target datalayout = "e-m:e-p270:32:32-p271:32:32-p272:64:64-i64:64-i128:128-f80:128-n8:16:32:64-S128"
target triple = "x86_64-pc-linux-gnu"

%"class.cvc5::internal::NodeTemplate" = type { ptr }
%"class.cvc5::internal::NodeTemplate.595" = type { ptr }
%"class.std::__cxx11::basic_string" = type { %"struct.std::__cxx11::basic_string<char>::_Alloc_hider", i64, %union.anon }
%"struct.std::__cxx11::basic_string<char>::_Alloc_hider" = type { ptr }
%union.anon = type { i64, [8 x i8] }
%"class.cvc5::internal::theory::Valuation" = type { ptr }
%"class.cvc5::internal::theory::Theory" = type { %"class.cvc5::internal::EnvObj", %"class.std::__cxx11::basic_string", %"class.cvc5::internal::TimerStat", %"class.cvc5::internal::TimerStat", ptr, %"class.cvc5::internal::theory::Valuation", ptr, %"class.std::unique_ptr", ptr, ptr, ptr, ptr, i32, [4 x i8], %"class.cvc5::context::CDList", %"class.cvc5::context::CDO", ptr, ptr }
%"class.cvc5::internal::EnvObj" = type { ptr, ptr }
%"class.cvc5::internal::TimerStat" = type { ptr }
%"class.std::unique_ptr" = type { %"struct.std::__uniq_ptr_data" }
%"struct.std::__uniq_ptr_data" = type { %"class.std::__uniq_ptr_impl" }
%"class.std::__uniq_ptr_impl" = type { %"class.std::tuple" }
%"class.std::tuple" = type { %"struct.std::_Tuple_impl" }
%"struct.std::_Tuple_impl" = type { %"struct.std::_Head_base.1" }
%"struct.std::_Head_base.1" = type { ptr }
%"class.cvc5::context::CDList" = type <{ %"class.cvc5::context::ContextObj", %"class.std::vector", i64, i8, [7 x i8] }>
%"class.cvc5::context::ContextObj" = type { ptr, ptr, ptr, ptr, ptr }
%"class.std::vector" = type { %"struct.std::_Vector_base" }
%"struct.std::_Vector_base" = type { %"struct.std::_Vector_base<cvc5::internal::theory::Assertion, std::allocator<cvc5::internal::theory::Assertion>>::_Vector_impl" }
%"struct.std::_Vector_base<cvc5::internal::theory::Assertion, std::allocator<cvc5::internal::theory::Assertion>>::_Vector_impl" = type { %"struct.std::_Vector_base<cvc5::internal::theory::Assertion, std::allocator<cvc5::internal::theory::Assertion>>::_Vector_impl_data" }
%"struct.std::_Vector_base<cvc5::internal::theory::Assertion, std::allocator<cvc5::internal::theory::Assertion>>::_Vector_impl_data" = type { ptr, ptr, ptr }
%"class.cvc5::context::CDO" = type <{ %"class.cvc5::context::ContextObj", i32, [4 x i8] }>

; Function Attrs: mustprogress uwtable
define linkonce_odr hidden void @_ZN4cvc58internal4expr9NodeValue3incEv(ptr noundef nonnull align 8 dereferenceable(24) %0) #4 comdat align 2 {
  %2 = alloca ptr, align 8
  store ptr %0, ptr %2, align 8, !tbaa !645
  %3 = load ptr, ptr %2, align 8
  %4 = load i64, ptr %3, align 8
  %5 = lshr i64 %4, 40
  %6 = and i64 %5, 1048575
  %7 = trunc i64 %6 to i32
  %8 = icmp ult i32 %7, 1048574
  %9 = zext i1 %8 to i64
  %10 = call i64 @llvm.expect.i64(i64 %9, i64 1)
  %11 = icmp ne i64 %10, 0
  br i1 %11, label %12, label %24

12:                                               ; preds = %1
  %13 = load i64, ptr %3, align 8
  %14 = lshr i64 %13, 40
  %15 = and i64 %14, 1048575
  %16 = trunc i64 %15 to i32
  %17 = add i32 %16, 1
  %18 = zext i32 %17 to i64
  %19 = load i64, ptr %3, align 8
  %20 = and i64 %18, 1048575
  %21 = shl i64 %20, 40
  %22 = and i64 %19, -1152920405095219201
  %23 = or i64 %22, %21
  store i64 %23, ptr %3, align 8
  br label %46

24:                                               ; preds = %1
  %25 = load i64, ptr %3, align 8
  %26 = lshr i64 %25, 40
  %27 = and i64 %26, 1048575
  %28 = trunc i64 %27 to i32
  %29 = icmp eq i32 %28, 1048574
  %30 = zext i1 %29 to i64
  %31 = call i64 @llvm.expect.i64(i64 %30, i64 0)
  %32 = icmp ne i64 %31, 0
  br i1 %32, label %33, label %45

33:                                               ; preds = %24
  %34 = load i64, ptr %3, align 8
  %35 = lshr i64 %34, 40
  %36 = and i64 %35, 1048575
  %37 = trunc i64 %36 to i32
  %38 = add i32 %37, 1
  %39 = zext i32 %38 to i64
  %40 = load i64, ptr %3, align 8
  %41 = and i64 %39, 1048575
  %42 = shl i64 %41, 40
  %43 = and i64 %40, -1152920405095219201
  %44 = or i64 %43, %42
  store i64 %44, ptr %3, align 8
  call void @_ZN4cvc58internal4expr9NodeValue20markRefCountMaxedOutEv(ptr noundef nonnull align 8 dereferenceable(24) %3)
  br label %45

45:                                               ; preds = %33, %24
  br label %46

46:                                               ; preds = %45, %12
  ret void
}

; Function Attrs: inlinehint mustprogress nounwind uwtable
define linkonce_odr hidden void @_ZNK4cvc58internal12NodeTemplateILb1EE21assertTNodeNotExpiredEv(ptr noundef nonnull align 8 dereferenceable(8) %0) #8 comdat align 2 {
  %2 = alloca ptr, align 8
  store ptr %0, ptr %2, align 8, !tbaa !160
  ret void
}

; Function Attrs: mustprogress nounwind uwtable
define linkonce_odr hidden void @_ZN4cvc58internal12NodeTemplateILb0EED2Ev(ptr noundef nonnull align 8 dereferenceable(8) %0) unnamed_addr #7 comdat align 2 {
  %2 = alloca ptr, align 8
  store ptr %0, ptr %2, align 8, !tbaa !438
  ret void
}

; Function Attrs: mustprogress nounwind uwtable
define linkonce_odr hidden void @_ZN4cvc58internal12NodeTemplateILb0EEC2ERKNS1_ILb1EEE(ptr noundef nonnull align 8 dereferenceable(8) %0, ptr noundef nonnull align 8 dereferenceable(8) %1) unnamed_addr #7 comdat align 2 {
  %3 = alloca ptr, align 8
  %4 = alloca ptr, align 8
  store ptr %0, ptr %3, align 8, !tbaa !438
  store ptr %1, ptr %4, align 8, !tbaa !160
  %5 = load ptr, ptr %3, align 8
  %6 = load ptr, ptr %4, align 8, !tbaa !160
  %7 = getelementptr inbounds nuw %"class.cvc5::internal::NodeTemplate", ptr %6, i32 0, i32 0
  %8 = load ptr, ptr %7, align 8, !tbaa !161
  %9 = getelementptr inbounds nuw %"class.cvc5::internal::NodeTemplate.595", ptr %5, i32 0, i32 0
  store ptr %8, ptr %9, align 8, !tbaa !441
  ret void
}

; Function Attrs: mustprogress uwtable
define hidden noundef zeroext i1 @_ZN4cvc58internal6theory3sep9TheorySep7hasTermENS0_12NodeTemplateILb1EEE(ptr noundef nonnull align 8 dereferenceable(1824) %0, ptr noundef %1) #4 align 2 personality ptr @__gxx_personality_v0 {
  %3 = alloca ptr, align 8
  %4 = alloca ptr, align 8
  %5 = alloca %"class.cvc5::internal::NodeTemplate.595", align 8
  %6 = alloca ptr, align 8
  %7 = alloca i32, align 4
  store ptr %0, ptr %3, align 8, !tbaa !3
  store ptr %1, ptr %4, align 8, !tbaa !160
  %8 = load ptr, ptr %3, align 8
  %9 = getelementptr inbounds nuw %"class.cvc5::internal::theory::Theory", ptr %8, i32 0, i32 6
  %10 = load ptr, ptr %9, align 8, !tbaa !437
  call void @_ZN4cvc58internal12NodeTemplateILb0EEC2ERKNS1_ILb1EEE(ptr noundef nonnull align 8 dereferenceable(8) %5, ptr noundef nonnull align 8 dereferenceable(8) %1)
  %11 = invoke noundef zeroext i1 @_ZNK4cvc58internal6theory2eq14EqualityEngine7hasTermENS0_12NodeTemplateILb0EEE(ptr noundef nonnull align 8 dereferenceable(1784) %10, ptr noundef %5)
          to label %12 unwind label %13

12:                                               ; preds = %2
  call void @_ZN4cvc58internal12NodeTemplateILb0EED2Ev(ptr noundef nonnull align 8 dereferenceable(8) %5) #3
  ret i1 %11

13:                                               ; preds = %2
  %14 = landingpad { ptr, i32 }
          cleanup
  %15 = extractvalue { ptr, i32 } %14, 0
  store ptr %15, ptr %6, align 8
  %16 = extractvalue { ptr, i32 } %14, 1
  store i32 %16, ptr %7, align 4
  call void @_ZN4cvc58internal12NodeTemplateILb0EED2Ev(ptr noundef nonnull align 8 dereferenceable(8) %5) #3
  br label %17

17:                                               ; preds = %13
  %18 = load ptr, ptr %6, align 8
  %19 = load i32, ptr %7, align 4
  %20 = insertvalue { ptr, i32 } poison, ptr %18, 0
  %21 = insertvalue { ptr, i32 } %20, i32 %19, 1
  resume { ptr, i32 } %21
}

; Function Attrs: mustprogress uwtable
define linkonce_odr hidden void @_ZN4cvc58internal12NodeTemplateILb1EEC2ERKS2_(ptr noundef nonnull align 8 dereferenceable(8) %0, ptr noundef nonnull align 8 dereferenceable(8) %1) unnamed_addr #4 comdat align 2 {
  %3 = alloca ptr, align 8
  %4 = alloca ptr, align 8
  store ptr %0, ptr %3, align 8, !tbaa !160
  store ptr %1, ptr %4, align 8, !tbaa !160
  %5 = load ptr, ptr %3, align 8
  %6 = load ptr, ptr %4, align 8, !tbaa !160
  %7 = getelementptr inbounds nuw %"class.cvc5::internal::NodeTemplate", ptr %6, i32 0, i32 0
  %8 = load ptr, ptr %7, align 8, !tbaa !161
  %9 = getelementptr inbounds nuw %"class.cvc5::internal::NodeTemplate", ptr %5, i32 0, i32 0
  store ptr %8, ptr %9, align 8, !tbaa !161
  %10 = getelementptr inbounds nuw %"class.cvc5::internal::NodeTemplate", ptr %5, i32 0, i32 0
  %11 = load ptr, ptr %10, align 8, !tbaa !161
  call void @_ZN4cvc58internal4expr9NodeValue3incEv(ptr noundef nonnull align 8 dereferenceable(24) %11)
  ret void
}

; Function Attrs: mustprogress nounwind uwtable
define linkonce_odr hidden noundef zeroext i1 @_ZNK4cvc58internal12NodeTemplateILb1EEeqILb1EEEbRKNS1_IXT_EEE(ptr noundef nonnull align 8 dereferenceable(8) %0, ptr noundef nonnull align 8 dereferenceable(8) %1) #7 comdat align 2 {
  %3 = alloca ptr, align 8
  %4 = alloca ptr, align 8
  store ptr %0, ptr %3, align 8, !tbaa !160
  store ptr %1, ptr %4, align 8, !tbaa !160
  %5 = load ptr, ptr %3, align 8
  call void @_ZNK4cvc58internal12NodeTemplateILb1EE21assertTNodeNotExpiredEv(ptr noundef nonnull align 8 dereferenceable(8) %5)
  %6 = load ptr, ptr %4, align 8, !tbaa !160
  call void @_ZNK4cvc58internal12NodeTemplateILb1EE21assertTNodeNotExpiredEv(ptr noundef nonnull align 8 dereferenceable(8) %6)
  %7 = getelementptr inbounds nuw %"class.cvc5::internal::NodeTemplate", ptr %5, i32 0, i32 0
  %8 = load ptr, ptr %7, align 8, !tbaa !161
  %9 = load ptr, ptr %4, align 8, !tbaa !160
  %10 = getelementptr inbounds nuw %"class.cvc5::internal::NodeTemplate", ptr %9, i32 0, i32 0
  %11 = load ptr, ptr %10, align 8, !tbaa !161
  %12 = icmp eq ptr %8, %11
  ret i1 %12
}

; Function Attrs: mustprogress uwtable
define hidden noundef zeroext i1 @_ZN4cvc58internal6theory3sep9TheorySep8areEqualENS0_12NodeTemplateILb1EEES5_(ptr noundef nonnull align 8 dereferenceable(1824) %0, ptr noundef %1, ptr noundef %2) #4 align 2 personality ptr @__gxx_personality_v0 {
  %4 = alloca i1, align 1
  %5 = alloca ptr, align 8
  %6 = alloca ptr, align 8
  %7 = alloca ptr, align 8
  %8 = alloca %"class.cvc5::internal::NodeTemplate", align 8
  %9 = alloca ptr, align 8
  %10 = alloca i32, align 4
  %11 = alloca %"class.cvc5::internal::NodeTemplate", align 8
  %12 = alloca i1, align 1
  %13 = alloca %"class.cvc5::internal::NodeTemplate.595", align 8
  %14 = alloca %"class.cvc5::internal::NodeTemplate.595", align 8
  store ptr %0, ptr %5, align 8, !tbaa !3
  store ptr %1, ptr %6, align 8, !tbaa !160
  store ptr %2, ptr %7, align 8, !tbaa !160
  %15 = load ptr, ptr %5, align 8
  %16 = call noundef zeroext i1 @_ZNK4cvc58internal12NodeTemplateILb1EEeqILb1EEEbRKNS1_IXT_EEE(ptr noundef nonnull align 8 dereferenceable(8) %1, ptr noundef nonnull align 8 dereferenceable(8) %2)
  br i1 %16, label %17, label %18

17:                                               ; preds = %3
  store i1 true, ptr %4, align 1
  br label %58

18:                                               ; preds = %3
  call void @_ZN4cvc58internal12NodeTemplateILb1EEC2ERKS2_(ptr noundef nonnull align 8 dereferenceable(8) %8, ptr noundef nonnull align 8 dereferenceable(8) %1)
  store i1 false, ptr %12, align 1
  %19 = invoke noundef zeroext i1 @_ZN4cvc58internal6theory3sep9TheorySep7hasTermENS0_12NodeTemplateILb1EEE(ptr noundef nonnull align 8 dereferenceable(1824) %15, ptr noundef %8)
          to label %20 unwind label %36

20:                                               ; preds = %18
  br i1 %19, label %21, label %25

21:                                               ; preds = %20
  invoke void @_ZN4cvc58internal12NodeTemplateILb1EEC2ERKS2_(ptr noundef nonnull align 8 dereferenceable(8) %11, ptr noundef nonnull align 8 dereferenceable(8) %2)
          to label %22 unwind label %36

22:                                               ; preds = %21
  store i1 true, ptr %12, align 1
  %23 = invoke noundef zeroext i1 @_ZN4cvc58internal6theory3sep9TheorySep7hasTermENS0_12NodeTemplateILb1EEE(ptr noundef nonnull align 8 dereferenceable(1824) %15, ptr noundef %11)
          to label %24 unwind label %40

24:                                               ; preds = %22
  br label %25

25:                                               ; preds = %24, %20
  %26 = phi i1 [ false, %20 ], [ %23, %24 ]
  %27 = load i1, ptr %12, align 1
  br i1 %27, label %28, label %29

28:                                               ; preds = %25
  call void @_ZN4cvc58internal12NodeTemplateILb1EED2Ev(ptr noundef nonnull align 8 dereferenceable(8) %11) #3
  br label %29

29:                                               ; preds = %28, %25
  call void @_ZN4cvc58internal12NodeTemplateILb1EED2Ev(ptr noundef nonnull align 8 dereferenceable(8) %8) #3
  br i1 %26, label %30, label %57

30:                                               ; preds = %29
  %31 = getelementptr inbounds nuw %"class.cvc5::internal::theory::Theory", ptr %15, i32 0, i32 6
  %32 = load ptr, ptr %31, align 8, !tbaa !437
  call void @_ZN4cvc58internal12NodeTemplateILb0EEC2ERKNS1_ILb1EEE(ptr noundef nonnull align 8 dereferenceable(8) %13, ptr noundef nonnull align 8 dereferenceable(8) %1)
  invoke void @_ZN4cvc58internal12NodeTemplateILb0EEC2ERKNS1_ILb1EEE(ptr noundef nonnull align 8 dereferenceable(8) %14, ptr noundef nonnull align 8 dereferenceable(8) %2)
          to label %33 unwind label %48

33:                                               ; preds = %30
  %34 = invoke noundef zeroext i1 @_ZNK4cvc58internal6theory2eq14EqualityEngine8areEqualENS0_12NodeTemplateILb0EEES5_(ptr noundef nonnull align 8 dereferenceable(1784) %32, ptr noundef %13, ptr noundef %14)
          to label %35 unwind label %52

35:                                               ; preds = %33
  store i1 %34, ptr %4, align 1
  call void @_ZN4cvc58internal12NodeTemplateILb0EED2Ev(ptr noundef nonnull align 8 dereferenceable(8) %14) #3
  call void @_ZN4cvc58internal12NodeTemplateILb0EED2Ev(ptr noundef nonnull align 8 dereferenceable(8) %13) #3
  br label %58

36:                                               ; preds = %21, %18
  %37 = landingpad { ptr, i32 }
          cleanup
  %38 = extractvalue { ptr, i32 } %37, 0
  store ptr %38, ptr %9, align 8
  %39 = extractvalue { ptr, i32 } %37, 1
  store i32 %39, ptr %10, align 4
  br label %47

40:                                               ; preds = %22
  %41 = landingpad { ptr, i32 }
          cleanup
  %42 = extractvalue { ptr, i32 } %41, 0
  store ptr %42, ptr %9, align 8
  %43 = extractvalue { ptr, i32 } %41, 1
  store i32 %43, ptr %10, align 4
  %44 = load i1, ptr %12, align 1
  br i1 %44, label %45, label %46

45:                                               ; preds = %40
  call void @_ZN4cvc58internal12NodeTemplateILb1EED2Ev(ptr noundef nonnull align 8 dereferenceable(8) %11) #3
  br label %46

46:                                               ; preds = %45, %40
  br label %47

47:                                               ; preds = %46, %36
  call void @_ZN4cvc58internal12NodeTemplateILb1EED2Ev(ptr noundef nonnull align 8 dereferenceable(8) %8) #3
  br label %60

48:                                               ; preds = %30
  %49 = landingpad { ptr, i32 }
          cleanup
  %50 = extractvalue { ptr, i32 } %49, 0
  store ptr %50, ptr %9, align 8
  %51 = extractvalue { ptr, i32 } %49, 1
  store i32 %51, ptr %10, align 4
  br label %56

52:                                               ; preds = %33
  %53 = landingpad { ptr, i32 }
          cleanup
  %54 = extractvalue { ptr, i32 } %53, 0
  store ptr %54, ptr %9, align 8
  %55 = extractvalue { ptr, i32 } %53, 1
  store i32 %55, ptr %10, align 4
  call void @_ZN4cvc58internal12NodeTemplateILb0EED2Ev(ptr noundef nonnull align 8 dereferenceable(8) %14) #3
  br label %56

56:                                               ; preds = %52, %48
  call void @_ZN4cvc58internal12NodeTemplateILb0EED2Ev(ptr noundef nonnull align 8 dereferenceable(8) %13) #3
  br label %60

57:                                               ; preds = %29
  store i1 false, ptr %4, align 1
  br label %58

58:                                               ; preds = %57, %35, %17
  %59 = load i1, ptr %4, align 1
  ret i1 %59

60:                                               ; preds = %56, %47
  %61 = load ptr, ptr %9, align 8
  %62 = load i32, ptr %10, align 4
  %63 = insertvalue { ptr, i32 } poison, ptr %61, 0
  %64 = insertvalue { ptr, i32 } %63, i32 %62, 1
  resume { ptr, i32 } %64
}